; Function Attrs: nounwind uwtable
define dso_local void @graph_show_padding(ptr noundef %0) local_unnamed_addr #2 {
  %2 = alloca %struct.strbuf, align 8
  call void @llvm.lifetime.start.p0(i64 24, ptr nonnull %2) #15
  call void @llvm.memcpy.p0.p0.i64(ptr noundef nonnull align 8 dereferenceable(24) %2, ptr noundef nonnull align 8 dereferenceable(24) @__const.graph_show_remainder.msgbuf, i64 24, i1 false)
  %3 = load ptr, ptr @default_diffopt, align 8, !tbaa !11
  %.not.i = icmp eq ptr %3, null
  br i1 %.not.i, label %graph_show_line_prefix.exit, label %4

4:                                                ; preds = %1
  %5 = getelementptr inbounds nuw i8, ptr %3, i64 88
  %6 = load ptr, ptr %5, align 8, !tbaa !31
  %.not5.i = icmp eq ptr %6, null
  br i1 %.not5.i, label %graph_show_line_prefix.exit, label %7

7:                                                ; preds = %4
  %8 = getelementptr inbounds nuw i8, ptr %3, i64 440
  %9 = load ptr, ptr %8, align 8, !tbaa !140
  %10 = tail call i32 @fputs(ptr noundef nonnull %6, ptr noundef %9)
  br label %graph_show_line_prefix.exit

graph_show_line_prefix.exit:                      ; preds = %1, %4, %7
  %.not = icmp eq ptr %0, null
  br i1 %.not, label %21, label %11

11:                                               ; preds = %graph_show_line_prefix.exit
  call fastcc void @graph_padding_line(ptr noundef %0, ptr noundef %2)
  %12 = getelementptr inbounds nuw i8, ptr %2, i64 16
  %13 = load ptr, ptr %12, align 8, !tbaa !29
  %14 = getelementptr inbounds nuw i8, ptr %2, i64 8
  %15 = load i64, ptr %14, align 8, !tbaa !27
  %16 = getelementptr inbounds nuw i8, ptr %0, i64 8
  %17 = load ptr, ptr %16, align 8, !tbaa !79
  %18 = getelementptr inbounds nuw i8, ptr %17, i64 1912
  %19 = load ptr, ptr %18, align 8, !tbaa !141
  %20 = call i64 @fwrite(ptr noundef %13, i64 noundef 1, i64 noundef %15, ptr noundef %19)
  call void @strbuf_release(ptr noundef nonnull %2) #15
  br label %21

21:                                               ; preds = %graph_show_line_prefix.exit, %11
  call void @llvm.lifetime.end.p0(i64 24, ptr nonnull %2) #15
  ret void
}